target datalayout = "e-m:e-p270:32:32-p271:32:32-p272:64:64-i64:64-i128:128-f80:128-n8:16:32:64-S128"
target triple = "x86_64-pc-linux-gnu"

%struct._wmem_range_t = type { i64, i64, i64 }
%struct._wmem_tree_node_t = type { ptr, ptr, ptr, ptr, ptr, i32, i8, i8 }

; Function Attrs: nounwind uwtable
define hidden zeroext i1 @wmem_itree_range_overlap(ptr noundef %0, ptr noundef %1) #0 {
  %3 = alloca ptr, align 8
  %4 = alloca ptr, align 8
  store ptr %0, ptr %3, align 8
  store ptr %1, ptr %4, align 8
  %5 = load ptr, ptr %3, align 8
  %6 = getelementptr inbounds %struct._wmem_range_t, ptr %5, i32 0, i32 0
  %7 = load i64, ptr %6, align 8
  %8 = load ptr, ptr %4, align 8
  %9 = getelementptr inbounds %struct._wmem_range_t, ptr %8, i32 0, i32 1
  %10 = load i64, ptr %9, align 8
  %11 = icmp ule i64 %7, %10
  br i1 %11, label %12, label %20

12:                                               ; preds = %2
  %13 = load ptr, ptr %4, align 8
  %14 = getelementptr inbounds %struct._wmem_range_t, ptr %13, i32 0, i32 0
  %15 = load i64, ptr %14, align 8
  %16 = load ptr, ptr %3, align 8
  %17 = getelementptr inbounds %struct._wmem_range_t, ptr %16, i32 0, i32 1
  %18 = load i64, ptr %17, align 8
  %19 = icmp ule i64 %15, %18
  br label %20

20:                                               ; preds = %12, %2
  %21 = phi i1 [ false, %2 ], [ %19, %12 ]
  ret i1 %21
}

; Function Attrs: nounwind uwtable
define internal void @wmem_itree_find_intervals_in_subtree(ptr noundef %0, ptr noundef byval(%struct._wmem_range_t) align 8 %1, ptr noundef %2) #0 {
  %4 = alloca ptr, align 8
  %5 = alloca ptr, align 8
  %6 = alloca ptr, align 8
  store ptr %0, ptr %4, align 8
  store ptr %2, ptr %5, align 8
  %7 = load ptr, ptr %4, align 8
  %8 = icmp ne ptr %7, null
  br i1 %8, label %10, label %9

9:                                                ; preds = %3
  br label %38

10:                                               ; preds = %3
  %11 = load ptr, ptr %4, align 8
  %12 = getelementptr inbounds %struct._wmem_tree_node_t, ptr %11, i32 0, i32 3
  %13 = load ptr, ptr %12, align 8
  store ptr %13, ptr %6, align 8
  %14 = getelementptr inbounds %struct._wmem_range_t, ptr %1, i32 0, i32 0
  %15 = load i64, ptr %14, align 8
  %16 = load ptr, ptr %6, align 8
  %17 = getelementptr inbounds %struct._wmem_range_t, ptr %16, i32 0, i32 2
  %18 = load i64, ptr %17, align 8
  %19 = icmp ugt i64 %15, %18
  br i1 %19, label %20, label %21

20:                                               ; preds = %10
  br label %38

21:                                               ; preds = %10
  %22 = load ptr, ptr %6, align 8
  %23 = call zeroext i1 @wmem_itree_range_overlap(ptr noundef %22, ptr noundef %1)
  br i1 %23, label %24, label %29

24:                                               ; preds = %21
  %25 = load ptr, ptr %5, align 8
  %26 = load ptr, ptr %4, align 8
  %27 = getelementptr inbounds %struct._wmem_tree_node_t, ptr %26, i32 0, i32 4
  %28 = load ptr, ptr %27, align 8
  call void @wmem_list_prepend(ptr noundef %25, ptr noundef %28)
  br label %29

29:                                               ; preds = %24, %21
  %30 = load ptr, ptr %4, align 8
  %31 = getelementptr inbounds %struct._wmem_tree_node_t, ptr %30, i32 0, i32 1
  %32 = load ptr, ptr %31, align 8
  %33 = load ptr, ptr %5, align 8
  call void @wmem_itree_find_intervals_in_subtree(ptr noundef %32, ptr noundef byval(%struct._wmem_range_t) align 8 %1, ptr noundef %33)
  %34 = load ptr, ptr %4, align 8
  %35 = getelementptr inbounds %struct._wmem_tree_node_t, ptr %34, i32 0, i32 2
  %36 = load ptr, ptr %35, align 8
  %37 = load ptr, ptr %5, align 8
  call void @wmem_itree_find_intervals_in_subtree(ptr noundef %36, ptr noundef byval(%struct._wmem_range_t) align 8 %1, ptr noundef %37)
  br label %38

38:                                               ; preds = %29, %20, %9
  ret void
}