; Function Attrs: nounwind uwtable
define internal fastcc void @wmem_itree_find_intervals_in_subtree(ptr noundef readonly %0, i64 %.0.val, i64 %.8.val, ptr noundef %1) unnamed_addr #1 {
  %.not3 = icmp eq ptr %0, null
  br i1 %.not3, label %._crit_edge, label %.lr.ph

.lr.ph:                                           ; preds = %2, %wmem_itree_range_overlap.exit.thread
  %.tr4 = phi ptr [ %18, %wmem_itree_range_overlap.exit.thread ], [ %0, %2 ]
  %3 = getelementptr inbounds nuw i8, ptr %.tr4, i64 24
  %4 = load ptr, ptr %3, align 8
  %5 = getelementptr inbounds nuw i8, ptr %4, i64 16
  %6 = load i64, ptr %5, align 8
  %7 = icmp ugt i64 %.0.val, %6
  br i1 %7, label %._crit_edge, label %8

8:                                                ; preds = %.lr.ph
  %9 = load i64, ptr %4, align 8
  %.not.i = icmp ugt i64 %9, %.8.val
  br i1 %.not.i, label %wmem_itree_range_overlap.exit.thread, label %wmem_itree_range_overlap.exit

wmem_itree_range_overlap.exit:                    ; preds = %8
  %10 = getelementptr inbounds nuw i8, ptr %4, i64 8
  %11 = load i64, ptr %10, align 8
  %.not1 = icmp ugt i64 %.0.val, %11
  br i1 %.not1, label %wmem_itree_range_overlap.exit.thread, label %12

12:                                               ; preds = %wmem_itree_range_overlap.exit
  %13 = getelementptr inbounds nuw i8, ptr %.tr4, i64 32
  %14 = load ptr, ptr %13, align 8
  tail call void @wmem_list_prepend(ptr noundef %1, ptr noundef %14) #7
  br label %wmem_itree_range_overlap.exit.thread

wmem_itree_range_overlap.exit.thread:             ; preds = %8, %12, %wmem_itree_range_overlap.exit
  %15 = getelementptr inbounds nuw i8, ptr %.tr4, i64 8
  %16 = load ptr, ptr %15, align 8
  tail call fastcc void @wmem_itree_find_intervals_in_subtree(ptr noundef %16, i64 %.0.val, i64 %.8.val, ptr noundef %1)
  %17 = getelementptr inbounds nuw i8, ptr %.tr4, i64 16
  %18 = load ptr, ptr %17, align 8
  %.not = icmp eq ptr %18, null
  br i1 %.not, label %._crit_edge, label %.lr.ph

._crit_edge:                                      ; preds = %wmem_itree_range_overlap.exit.thread, %.lr.ph, %2
  ret void
}